; ModuleID = 'source-C-CXX/52/877.c'
source_filename = "source-C-CXX/52/877.c"
target datalayout = "e-m:e-p270:32:32-p271:32:32-p272:64:64-i64:64-f80:128-n8:16:32:64-S128"
target triple = "x86_64-pc-linux-gnu"

@.str = private unnamed_addr constant [3 x i8] c"%d\00", align 1
@.str.1 = private unnamed_addr constant [4 x i8] c"%d,\00", align 1

; Function Attrs: nofree nounwind sspstrong uwtable
define dso_local i32 @main() local_unnamed_addr #0 {
  %1 = alloca i32, align 4
  %2 = alloca [300 x i32], align 16
  %3 = alloca [300 x i32], align 16
  %4 = bitcast i32* %1 to i8*
  call void @llvm.lifetime.start.p0i8(i64 4, i8* nonnull %4) #3
  %5 = bitcast [300 x i32]* %2 to i8*
  call void @llvm.lifetime.start.p0i8(i64 1200, i8* nonnull %5) #3
  %6 = bitcast [300 x i32]* %3 to i8*
  call void @llvm.lifetime.start.p0i8(i64 1200, i8* nonnull %6) #3
  %7 = call i32 (i8*, ...) @__isoc99_scanf(i8* getelementptr inbounds ([3 x i8], [3 x i8]* @.str, i64 0, i64 0), i32* nonnull %1)
  %8 = load i32, i32* %1, align 4, !tbaa !5
  %9 = icmp slt i32 %8, 1
  br i1 %9, label %65, label %17

10:                                               ; preds = %17
  %11 = getelementptr inbounds [300 x i32], [300 x i32]* %2, i64 0, i64 0
  %12 = load i32, i32* %11, align 16
  %13 = getelementptr inbounds [300 x i32], [300 x i32]* %3, i64 0, i64 0
  %14 = icmp sgt i32 %23, 0
  br i1 %14, label %15, label %65

15:                                               ; preds = %10
  %16 = zext i32 %23 to i64
  br label %30

17:                                               ; preds = %0, %17
  %18 = phi i64 [ %22, %17 ], [ 1, %0 ]
  %19 = add nsw i64 %18, -1
  %20 = getelementptr inbounds [300 x i32], [300 x i32]* %2, i64 0, i64 %19
  %21 = call i32 (i8*, ...) @__isoc99_scanf(i8* getelementptr inbounds ([3 x i8], [3 x i8]* @.str, i64 0, i64 0), i32* nonnull %20)
  %22 = add nuw nsw i64 %18, 1
  %23 = load i32, i32* %1, align 4, !tbaa !5
  %24 = sext i32 %23 to i64
  %25 = icmp slt i64 %18, %24
  br i1 %25, label %17, label %10, !llvm.loop !9

26:                                               ; preds = %54
  %27 = icmp sgt i32 %55, 0
  br i1 %27, label %28, label %65

28:                                               ; preds = %26
  %29 = zext i32 %55 to i64
  br label %58

30:                                               ; preds = %15, %54
  %31 = phi i64 [ 0, %15 ], [ %56, %54 ]
  %32 = phi i32 [ 0, %15 ], [ %55, %54 ]
  %33 = icmp eq i64 %31, 0
  br i1 %33, label %37, label %34

34:                                               ; preds = %30
  %35 = getelementptr inbounds [300 x i32], [300 x i32]* %2, i64 0, i64 %31
  %36 = load i32, i32* %35, align 4, !tbaa !5
  br label %38

37:                                               ; preds = %30
  store i32 %12, i32* %13, align 16, !tbaa !5
  br label %54

38:                                               ; preds = %34, %43
  %39 = phi i64 [ 0, %34 ], [ %44, %43 ]
  %40 = getelementptr inbounds [300 x i32], [300 x i32]* %2, i64 0, i64 %39
  %41 = load i32, i32* %40, align 4, !tbaa !5
  %42 = icmp eq i32 %41, %36
  br i1 %42, label %46, label %43

43:                                               ; preds = %38
  %44 = add nuw nsw i64 %39, 1
  %45 = icmp eq i64 %44, %31
  br i1 %45, label %46, label %38, !llvm.loop !11

46:                                               ; preds = %43, %38
  %47 = phi i64 [ %39, %38 ], [ %31, %43 ]
  %48 = and i64 %47, 4294967295
  %49 = icmp eq i64 %48, %31
  br i1 %49, label %50, label %54

50:                                               ; preds = %46
  %51 = add nsw i32 %32, 1
  %52 = sext i32 %51 to i64
  %53 = getelementptr inbounds [300 x i32], [300 x i32]* %3, i64 0, i64 %52
  store i32 %36, i32* %53, align 4, !tbaa !5
  br label %54

54:                                               ; preds = %37, %50, %46
  %55 = phi i32 [ %51, %50 ], [ %32, %46 ], [ %32, %37 ]
  %56 = add nuw nsw i64 %31, 1
  %57 = icmp eq i64 %56, %16
  br i1 %57, label %26, label %30, !llvm.loop !12

58:                                               ; preds = %28, %58
  %59 = phi i64 [ 0, %28 ], [ %63, %58 ]
  %60 = getelementptr inbounds [300 x i32], [300 x i32]* %3, i64 0, i64 %59
  %61 = load i32, i32* %60, align 4, !tbaa !5
  %62 = call i32 (i8*, ...) @printf(i8* nonnull dereferenceable(1) getelementptr inbounds ([4 x i8], [4 x i8]* @.str.1, i64 0, i64 0), i32 %61)
  %63 = add nuw nsw i64 %59, 1
  %64 = icmp eq i64 %63, %29
  br i1 %64, label %65, label %58, !llvm.loop !13

65:                                               ; preds = %58, %0, %10, %26
  %66 = phi i32 [ %55, %26 ], [ 0, %10 ], [ 0, %0 ], [ %55, %58 ]
  %67 = sext i32 %66 to i64
  %68 = getelementptr inbounds [300 x i32], [300 x i32]* %3, i64 0, i64 %67
  %69 = load i32, i32* %68, align 4, !tbaa !5
  %70 = call i32 (i8*, ...) @printf(i8* nonnull dereferenceable(1) getelementptr inbounds ([3 x i8], [3 x i8]* @.str, i64 0, i64 0), i32 %69)
  call void @llvm.lifetime.end.p0i8(i64 1200, i8* nonnull %6) #3
  call void @llvm.lifetime.end.p0i8(i64 1200, i8* nonnull %5) #3
  call void @llvm.lifetime.end.p0i8(i64 4, i8* nonnull %4) #3
  ret i32 0
}

; Function Attrs: argmemonly mustprogress nofree nosync nounwind willreturn
declare void @llvm.lifetime.start.p0i8(i64 immarg, i8* nocapture) #1

; Function Attrs: nofree nounwind
declare noundef i32 @__isoc99_scanf(i8* nocapture noundef readonly, ...) local_unnamed_addr #2

; Function Attrs: nofree nounwind
declare noundef i32 @printf(i8* nocapture noundef readonly, ...) local_unnamed_addr #2

; Function Attrs: argmemonly mustprogress nofree nosync nounwind willreturn
declare void @llvm.lifetime.end.p0i8(i64 immarg, i8* nocapture) #1


!llvm.module.flags = !{!0, !1, !2, !3}
!llvm.ident = !{!4}

!0 = !{i32 1, !"wchar_size", i32 4}
!1 = !{i32 7, !"PIC Level", i32 2}
!2 = !{i32 7, !"PIE Level", i32 2}
!3 = !{i32 7, !"uwtable", i32 1}
!4 = !{!"clang version 13.0.0"}
!5 = !{!6, !6, i64 0}
!6 = !{!"int", !7, i64 0}
!7 = !{!"omnipotent char", !8, i64 0}
!8 = !{!"Simple C/C++ TBAA"}
!9 = distinct !{!9, !10}
!10 = !{!"llvm.loop.mustprogress"}
!11 = distinct !{!11, !10}
!12 = distinct !{!12, !10}
!13 = distinct !{!13, !10}
